; Function Attrs: mustprogress norecurse uwtable
define internal fastcc void @"_ZZL10TestErrorsvENK3$_0clERKNSt7__cxx1112basic_stringIcSt11char_traitsIcESaIcEEE"(ptr noundef nonnull align 8 dereferenceable(32) %0) unnamed_addr #0 align 2 personality ptr @__gxx_personality_v0 {
  %2 = alloca %"class.pxrInternal_v0_24__pxrReserved__::SdfPathExpression", align 8
  %3 = alloca %"class.std::__cxx11::basic_string", align 8
  %4 = alloca %"struct.pxrInternal_v0_24__pxrReserved__::Tf_DiagnosticHelper", align 8
  %5 = alloca %"struct.pxrInternal_v0_24__pxrReserved__::Tf_DiagnosticHelper", align 8
  call void @_ZNSt7__cxx1112basic_stringIcSt11char_traitsIcESaIcEEC1Ev(ptr noundef nonnull align 8 dereferenceable(32) %3) #24
  invoke void @_ZN32pxrInternal_v0_24__pxrReserved__17SdfPathExpressionC1ERKNSt7__cxx1112basic_stringIcSt11char_traitsIcESaIcEEES8_(ptr noundef nonnull align 8 dereferenceable(104) %2, ptr noundef nonnull align 8 dereferenceable(32) %0, ptr noundef nonnull align 8 dereferenceable(32) %3)
          to label %6 unwind label %14

6:                                                ; preds = %1
  call void @_ZNSt7__cxx1112basic_stringIcSt11char_traitsIcESaIcEED1Ev(ptr noundef nonnull align 8 dereferenceable(32) %3) #24
  %7 = load ptr, ptr %2, align 8
  %8 = getelementptr inbounds nuw i8, ptr %2, i64 8
  %9 = load ptr, ptr %8, align 8
  %10 = icmp eq ptr %7, %9
  br i1 %10, label %18, label %11

11:                                               ; preds = %6
  store ptr @.str.3, ptr %4, align 8
  %.sroa.22.0..sroa_idx = getelementptr inbounds i8, ptr %4, i64 8
  store ptr @"__func__._ZZL10TestSearchvENK3$_2clERKNSt7__cxx1112basic_stringIcSt11char_traitsIcESaIcEEERKSt6vectorIS5_SaIS5_EE", ptr %.sroa.22.0..sroa_idx, align 8
  %.sroa.33.0..sroa_idx = getelementptr inbounds i8, ptr %4, i64 16
  store i64 521, ptr %.sroa.33.0..sroa_idx, align 8
  %.sroa.44.0..sroa_idx = getelementptr inbounds i8, ptr %4, i64 24
  store ptr @"__PRETTY_FUNCTION__._ZZL10TestErrorsvENK3$_0clERKNSt7__cxx1112basic_stringIcSt11char_traitsIcESaIcEEE", ptr %.sroa.44.0..sroa_idx, align 8
  %.sroa.55.0..sroa_idx = getelementptr inbounds i8, ptr %4, i64 32
  store i8 0, ptr %.sroa.55.0..sroa_idx, align 8
  %12 = getelementptr inbounds nuw i8, ptr %4, i64 40
  store i32 4, ptr %12, align 8
  %13 = call noundef ptr @_ZNKSt7__cxx1112basic_stringIcSt11char_traitsIcESaIcEE5c_strEv(ptr noundef nonnull align 8 dereferenceable(32) %0) #24
  invoke void (ptr, ptr, ...) @_ZNK32pxrInternal_v0_24__pxrReserved__19Tf_DiagnosticHelper15IssueFatalErrorEPKcz(ptr noundef nonnull align 8 dereferenceable(44) %4, ptr noundef nonnull @.str.323, ptr noundef %13)
          to label %18 unwind label %16

14:                                               ; preds = %1
  %15 = landingpad { ptr, i32 }
          cleanup
  call void @_ZNSt7__cxx1112basic_stringIcSt11char_traitsIcESaIcEED1Ev(ptr noundef nonnull align 8 dereferenceable(32) %3) #24
  br label %25

16:                                               ; preds = %21, %11
  %17 = landingpad { ptr, i32 }
          cleanup
  call void @_ZN32pxrInternal_v0_24__pxrReserved__17SdfPathExpressionD2Ev(ptr noundef nonnull align 8 dereferenceable(104) %2) #24
  br label %25

18:                                               ; preds = %11, %6
  %19 = getelementptr inbounds nuw i8, ptr %2, i64 72
  %20 = call noundef zeroext i1 @_ZNKSt7__cxx1112basic_stringIcSt11char_traitsIcESaIcEE5emptyEv(ptr noundef nonnull align 8 dereferenceable(32) %19) #24
  br i1 %20, label %21, label %24

21:                                               ; preds = %18
  store ptr @.str.3, ptr %5, align 8
  %.sroa.2.0..sroa_idx = getelementptr inbounds i8, ptr %5, i64 8
  store ptr @"__func__._ZZL10TestSearchvENK3$_2clERKNSt7__cxx1112basic_stringIcSt11char_traitsIcESaIcEEERKSt6vectorIS5_SaIS5_EE", ptr %.sroa.2.0..sroa_idx, align 8
  %.sroa.3.0..sroa_idx = getelementptr inbounds i8, ptr %5, i64 16
  store i64 525, ptr %.sroa.3.0..sroa_idx, align 8
  %.sroa.4.0..sroa_idx = getelementptr inbounds i8, ptr %5, i64 24
  store ptr @"__PRETTY_FUNCTION__._ZZL10TestErrorsvENK3$_0clERKNSt7__cxx1112basic_stringIcSt11char_traitsIcESaIcEEE", ptr %.sroa.4.0..sroa_idx, align 8
  %.sroa.5.0..sroa_idx = getelementptr inbounds i8, ptr %5, i64 32
  store i8 0, ptr %.sroa.5.0..sroa_idx, align 8
  %22 = getelementptr inbounds nuw i8, ptr %5, i64 40
  store i32 4, ptr %22, align 8
  %23 = call noundef ptr @_ZNKSt7__cxx1112basic_stringIcSt11char_traitsIcESaIcEE5c_strEv(ptr noundef nonnull align 8 dereferenceable(32) %0) #24
  invoke void (ptr, ptr, ...) @_ZNK32pxrInternal_v0_24__pxrReserved__19Tf_DiagnosticHelper15IssueFatalErrorEPKcz(ptr noundef nonnull align 8 dereferenceable(44) %5, ptr noundef nonnull @.str.324, ptr noundef %23)
          to label %24 unwind label %16

24:                                               ; preds = %21, %18
  call void @_ZN32pxrInternal_v0_24__pxrReserved__17SdfPathExpressionD2Ev(ptr noundef nonnull align 8 dereferenceable(104) %2) #24
  ret void

25:                                               ; preds = %16, %14
  %.pn = phi { ptr, i32 } [ %17, %16 ], [ %15, %14 ]
  resume { ptr, i32 } %.pn
}